target datalayout = "e-m:e-p270:32:32-p271:32:32-p272:64:64-i64:64-i128:128-f80:128-n8:16:32:64-S128"
target triple = "x86_64-pc-linux-gnu"

%class.cmGeneratedFileStreamBase = type <{ %"class.std::__cxx11::basic_string", %"class.std::__cxx11::basic_string", %"class.std::__cxx11::basic_string", i8, i8, i8, i8, [4 x i8] }>
%"class.std::__cxx11::basic_string" = type { %"struct.std::__cxx11::basic_string<char>::_Alloc_hider", i64, %union.anon }
%"struct.std::__cxx11::basic_string<char>::_Alloc_hider" = type { ptr }
%union.anon = type { i64, [8 x i8] }
%"class.cmsys::Status" = type { i32, %union.anon.1 }
%union.anon.1 = type { i32 }

@.str.2 = private unnamed_addr constant [2 x i8] c".\00", align 1
@.str.3 = private unnamed_addr constant [8 x i8] c"tmp%05x\00", align 1

; Function Attrs: mustprogress uwtable
define dso_local void @_ZN25cmGeneratedFileStreamBase4OpenERKNSt7__cxx1112basic_stringIcSt11char_traitsIcESaIcEEE(ptr noundef nonnull align 8 dereferenceable(100) %0, ptr noundef nonnull align 8 dereferenceable(32) %1) #4 align 2 personality ptr @__gxx_personality_v0 {
  %3 = alloca ptr, align 8
  %4 = alloca ptr, align 8
  %5 = alloca %"class.std::__cxx11::basic_string", align 8
  %6 = alloca [64 x i8], align 16
  %7 = alloca %"class.cmsys::Status", align 4
  %8 = alloca %"class.std::__cxx11::basic_string", align 8
  %9 = alloca ptr, align 8
  %10 = alloca i32, align 4
  %11 = alloca %"class.cmsys::Status", align 4
  store ptr %0, ptr %3, align 8
  store ptr %1, ptr %4, align 8
  %12 = load ptr, ptr %3, align 8
  %13 = load ptr, ptr %4, align 8
  call void @_ZN5cmsys11SystemTools16CollapseFullPathERKNSt7__cxx1112basic_stringIcSt11char_traitsIcESaIcEEE(ptr dead_on_unwind writable sret(%"class.std::__cxx11::basic_string") align 8 %5, ptr noundef nonnull align 8 dereferenceable(32) %13)
  %14 = getelementptr inbounds %class.cmGeneratedFileStreamBase, ptr %12, i32 0, i32 0
  %15 = call noundef nonnull align 8 dereferenceable(32) ptr @_ZNSt7__cxx1112basic_stringIcSt11char_traitsIcESaIcEEaSEOS4_(ptr noundef nonnull align 8 dereferenceable(32) %14, ptr noundef nonnull align 8 dereferenceable(32) %5) #3
  call void @_ZNSt7__cxx1112basic_stringIcSt11char_traitsIcESaIcEED1Ev(ptr noundef nonnull align 8 dereferenceable(32) %5) #3
  %16 = getelementptr inbounds %class.cmGeneratedFileStreamBase, ptr %12, i32 0, i32 0
  %17 = getelementptr inbounds %class.cmGeneratedFileStreamBase, ptr %12, i32 0, i32 2
  %18 = call noundef nonnull align 8 dereferenceable(32) ptr @_ZNSt7__cxx1112basic_stringIcSt11char_traitsIcESaIcEEaSERKS4_(ptr noundef nonnull align 8 dereferenceable(32) %17, ptr noundef nonnull align 8 dereferenceable(32) %16)
  %19 = getelementptr inbounds %class.cmGeneratedFileStreamBase, ptr %12, i32 0, i32 2
  %20 = call noundef nonnull align 8 dereferenceable(32) ptr @_ZNSt7__cxx1112basic_stringIcSt11char_traitsIcESaIcEEpLEPKc(ptr noundef nonnull align 8 dereferenceable(32) %19, ptr noundef @.str.2)
  %21 = getelementptr inbounds %class.cmGeneratedFileStreamBase, ptr %12, i32 0, i32 1
  %22 = call noundef zeroext i1 @_ZNKSt7__cxx1112basic_stringIcSt11char_traitsIcESaIcEE5emptyEv(ptr noundef nonnull align 8 dereferenceable(32) %21) #3
  br i1 %22, label %27, label %23

23:                                               ; preds = %2
  %24 = getelementptr inbounds %class.cmGeneratedFileStreamBase, ptr %12, i32 0, i32 1
  %25 = getelementptr inbounds %class.cmGeneratedFileStreamBase, ptr %12, i32 0, i32 2
  %26 = call noundef nonnull align 8 dereferenceable(32) ptr @_ZNSt7__cxx1112basic_stringIcSt11char_traitsIcESaIcEEpLERKS4_(ptr noundef nonnull align 8 dereferenceable(32) %25, ptr noundef nonnull align 8 dereferenceable(32) %24)
  br label %35

27:                                               ; preds = %2
  %28 = getelementptr inbounds [64 x i8], ptr %6, i64 0, i64 0
  %29 = call noundef i32 @_ZN13cmSystemTools10RandomSeedEv()
  %30 = and i32 %29, 1048575
  %31 = call i32 (ptr, i64, ptr, ...) @snprintf(ptr noundef %28, i64 noundef 64, ptr noundef @.str.3, i32 noundef %30) #3
  %32 = getelementptr inbounds [64 x i8], ptr %6, i64 0, i64 0
  %33 = getelementptr inbounds %class.cmGeneratedFileStreamBase, ptr %12, i32 0, i32 2
  %34 = call noundef nonnull align 8 dereferenceable(32) ptr @_ZNSt7__cxx1112basic_stringIcSt11char_traitsIcESaIcEEpLEPKc(ptr noundef nonnull align 8 dereferenceable(32) %33, ptr noundef %32)
  br label %35

35:                                               ; preds = %27, %23
  %36 = getelementptr inbounds %class.cmGeneratedFileStreamBase, ptr %12, i32 0, i32 2
  %37 = call i64 @_ZN5cmsys11SystemTools10RemoveFileERKNSt7__cxx1112basic_stringIcSt11char_traitsIcESaIcEEE(ptr noundef nonnull align 8 dereferenceable(32) %36)
  store i64 %37, ptr %7, align 4
  %38 = getelementptr inbounds %class.cmGeneratedFileStreamBase, ptr %12, i32 0, i32 2
  call void @_ZN5cmsys11SystemTools15GetFilenamePathERKNSt7__cxx1112basic_stringIcSt11char_traitsIcESaIcEEE(ptr dead_on_unwind writable sret(%"class.std::__cxx11::basic_string") align 8 %8, ptr noundef nonnull align 8 dereferenceable(32) %38)
  %39 = invoke i64 @_ZN5cmsys11SystemTools13MakeDirectoryERKNSt7__cxx1112basic_stringIcSt11char_traitsIcESaIcEEEPKj(ptr noundef nonnull align 8 dereferenceable(32) %8, ptr noundef null)
          to label %40 unwind label %41

40:                                               ; preds = %35
  store i64 %39, ptr %11, align 4
  call void @_ZNSt7__cxx1112basic_stringIcSt11char_traitsIcESaIcEED1Ev(ptr noundef nonnull align 8 dereferenceable(32) %8) #3
  ret void

41:                                               ; preds = %35
  %42 = landingpad { ptr, i32 }
          cleanup
  %43 = extractvalue { ptr, i32 } %42, 0
  store ptr %43, ptr %9, align 8
  %44 = extractvalue { ptr, i32 } %42, 1
  store i32 %44, ptr %10, align 4
  call void @_ZNSt7__cxx1112basic_stringIcSt11char_traitsIcESaIcEED1Ev(ptr noundef nonnull align 8 dereferenceable(32) %8) #3
  br label %45

45:                                               ; preds = %41
  %46 = load ptr, ptr %9, align 8
  %47 = load i32, ptr %10, align 4
  %48 = insertvalue { ptr, i32 } poison, ptr %46, 0
  %49 = insertvalue { ptr, i32 } %48, i32 %47, 1
  resume { ptr, i32 } %49
}